target datalayout = "e-m:e-p270:32:32-p271:32:32-p272:64:64-i64:64-i128:128-f80:128-n8:16:32:64-S128"
target triple = "x86_64-pc-linux-gnu"

%struct.SDL_AtomicU32 = type { i32 }
%struct.SDL_Hint = type { ptr, i32, ptr }
%struct.SDL_HintWatch = type { ptr, ptr, ptr }

@SDL_hint_props = internal global %struct.SDL_AtomicU32 zeroinitializer, align 4
@.str = private unnamed_addr constant [26 x i8] c"Parameter '%s' is invalid\00", align 1
@.str.1 = private unnamed_addr constant [5 x i8] c"name\00", align 1
@.str.5 = private unnamed_addr constant [9 x i8] c"callback\00", align 1

; Function Attrs: nounwind uwtable
define internal i32 @GetHintProperties(i1 noundef zeroext %0) #0 {
  %2 = alloca i8, align 1
  %3 = alloca i32, align 4
  %4 = zext i1 %0 to i8
  store i8 %4, ptr %2, align 1
  call void @llvm.lifetime.start.p0(i64 4, ptr %3) #3
  %5 = call i32 @SDL_GetAtomicU32_REAL(ptr noundef @SDL_hint_props)
  store i32 %5, ptr %3, align 4
  %6 = load i32, ptr %3, align 4
  %7 = icmp ne i32 %6, 0
  br i1 %7, label %19, label %8

8:                                                ; preds = %1
  %9 = load i8, ptr %2, align 1, !range !6, !noundef !7
  %10 = trunc i8 %9 to i1
  br i1 %10, label %11, label %19

11:                                               ; preds = %8
  %12 = call i32 @SDL_CreateProperties_REAL()
  store i32 %12, ptr %3, align 4
  %13 = load i32, ptr %3, align 4
  %14 = call zeroext i1 @SDL_CompareAndSwapAtomicU32_REAL(ptr noundef @SDL_hint_props, i32 noundef 0, i32 noundef %13)
  br i1 %14, label %18, label %15

15:                                               ; preds = %11
  %16 = load i32, ptr %3, align 4
  call void @SDL_DestroyProperties_REAL(i32 noundef %16)
  %17 = call i32 @SDL_GetAtomicU32_REAL(ptr noundef @SDL_hint_props)
  store i32 %17, ptr %3, align 4
  br label %18

18:                                               ; preds = %15, %11
  br label %19

19:                                               ; preds = %18, %8, %1
  %20 = load i32, ptr %3, align 4
  call void @llvm.lifetime.end.p0(i64 4, ptr %3) #3
  ret i32 %20
}

; Function Attrs: nounwind uwtable
define hidden zeroext i1 @SDL_AddHintCallback_REAL(ptr noundef %0, ptr noundef %1, ptr noundef %2) #0 {
  %4 = alloca i1, align 1
  %5 = alloca ptr, align 8
  %6 = alloca ptr, align 8
  %7 = alloca ptr, align 8
  %8 = alloca i32, align 4
  %9 = alloca i32, align 4
  %10 = alloca ptr, align 8
  %11 = alloca i8, align 1
  %12 = alloca ptr, align 8
  %13 = alloca ptr, align 8
  store ptr %0, ptr %5, align 8
  store ptr %1, ptr %6, align 8
  store ptr %2, ptr %7, align 8
  %14 = load ptr, ptr %5, align 8
  %15 = icmp ne ptr %14, null
  br i1 %15, label %16, label %20

16:                                               ; preds = %3
  %17 = load ptr, ptr %5, align 8
  %18 = load i8, ptr %17, align 1
  %19 = icmp ne i8 %18, 0
  br i1 %19, label %22, label %20

20:                                               ; preds = %16, %3
  %21 = call zeroext i1 (ptr, ...) @SDL_SetError_REAL(ptr noundef @.str, ptr noundef @.str.1)
  store i1 %21, ptr %4, align 1
  br label %98

22:                                               ; preds = %16
  %23 = load ptr, ptr %6, align 8
  %24 = icmp ne ptr %23, null
  br i1 %24, label %27, label %25

25:                                               ; preds = %22
  %26 = call zeroext i1 (ptr, ...) @SDL_SetError_REAL(ptr noundef @.str, ptr noundef @.str.5)
  store i1 %26, ptr %4, align 1
  br label %98

27:                                               ; preds = %22
  br label %28

28:                                               ; preds = %27
  call void @llvm.lifetime.start.p0(i64 4, ptr %8) #3
  %29 = call i32 @GetHintProperties(i1 noundef zeroext true)
  store i32 %29, ptr %8, align 4
  %30 = load i32, ptr %8, align 4
  %31 = icmp ne i32 %30, 0
  br i1 %31, label %33, label %32

32:                                               ; preds = %28
  store i1 false, ptr %4, align 1
  store i32 1, ptr %9, align 4
  br label %97

33:                                               ; preds = %28
  call void @llvm.lifetime.start.p0(i64 8, ptr %10) #3
  %34 = call noalias ptr @SDL_malloc_REAL(i64 noundef 24)
  store ptr %34, ptr %10, align 8
  %35 = load ptr, ptr %10, align 8
  %36 = icmp ne ptr %35, null
  br i1 %36, label %38, label %37

37:                                               ; preds = %33
  store i1 false, ptr %4, align 1
  store i32 1, ptr %9, align 4
  br label %96

38:                                               ; preds = %33
  %39 = load ptr, ptr %6, align 8
  %40 = load ptr, ptr %10, align 8
  %41 = getelementptr inbounds nuw %struct.SDL_HintWatch, ptr %40, i32 0, i32 0
  store ptr %39, ptr %41, align 8
  %42 = load ptr, ptr %7, align 8
  %43 = load ptr, ptr %10, align 8
  %44 = getelementptr inbounds nuw %struct.SDL_HintWatch, ptr %43, i32 0, i32 1
  store ptr %42, ptr %44, align 8
  call void @llvm.lifetime.start.p0(i64 1, ptr %11) #3
  store i8 0, ptr %11, align 1
  %45 = load i32, ptr %8, align 4
  %46 = call zeroext i1 @SDL_LockProperties_REAL(i32 noundef %45)
  %47 = load ptr, ptr %5, align 8
  %48 = load ptr, ptr %6, align 8
  %49 = load ptr, ptr %7, align 8
  call void @SDL_RemoveHintCallback_REAL(ptr noundef %47, ptr noundef %48, ptr noundef %49)
  call void @llvm.lifetime.start.p0(i64 8, ptr %12) #3
  %50 = load i32, ptr %8, align 4
  %51 = load ptr, ptr %5, align 8
  %52 = call ptr @SDL_GetPointerProperty_REAL(i32 noundef %50, ptr noundef %51, ptr noundef null)
  store ptr %52, ptr %12, align 8
  %53 = load ptr, ptr %12, align 8
  %54 = icmp ne ptr %53, null
  br i1 %54, label %55, label %56

55:                                               ; preds = %38
  store i8 1, ptr %11, align 1
  br label %76

56:                                               ; preds = %38
  %57 = call noalias ptr @SDL_malloc_REAL(i64 noundef 24)
  store ptr %57, ptr %12, align 8
  %58 = load ptr, ptr %12, align 8
  %59 = icmp ne ptr %58, null
  br i1 %59, label %63, label %60

60:                                               ; preds = %56
  %61 = load ptr, ptr %10, align 8
  call void @SDL_free_REAL(ptr noundef %61)
  %62 = load i32, ptr %8, align 4
  call void @SDL_UnlockProperties_REAL(i32 noundef %62)
  store i1 false, ptr %4, align 1
  store i32 1, ptr %9, align 4
  br label %95

63:                                               ; preds = %56
  %64 = load ptr, ptr %12, align 8
  %65 = getelementptr inbounds nuw %struct.SDL_Hint, ptr %64, i32 0, i32 0
  store ptr null, ptr %65, align 8
  %66 = load ptr, ptr %12, align 8
  %67 = getelementptr inbounds nuw %struct.SDL_Hint, ptr %66, i32 0, i32 1
  store i32 0, ptr %67, align 8
  %68 = load ptr, ptr %12, align 8
  %69 = getelementptr inbounds nuw %struct.SDL_Hint, ptr %68, i32 0, i32 2
  store ptr null, ptr %69, align 8
  %70 = load i32, ptr %8, align 4
  %71 = load ptr, ptr %5, align 8
  %72 = load ptr, ptr %12, align 8
  %73 = call zeroext i1 @SDL_SetPointerPropertyWithCleanup_REAL(i32 noundef %70, ptr noundef %71, ptr noundef %72, ptr noundef @CleanupHintProperty, ptr noundef null)
  %74 = zext i1 %73 to i8
  store i8 %74, ptr %11, align 1
  br label %75

75:                                               ; preds = %63
  br label %76

76:                                               ; preds = %75, %55
  %77 = load ptr, ptr %12, align 8
  %78 = getelementptr inbounds nuw %struct.SDL_Hint, ptr %77, i32 0, i32 2
  %79 = load ptr, ptr %78, align 8
  %80 = load ptr, ptr %10, align 8
  %81 = getelementptr inbounds nuw %struct.SDL_HintWatch, ptr %80, i32 0, i32 2
  store ptr %79, ptr %81, align 8
  %82 = load ptr, ptr %10, align 8
  %83 = load ptr, ptr %12, align 8
  %84 = getelementptr inbounds nuw %struct.SDL_Hint, ptr %83, i32 0, i32 2
  store ptr %82, ptr %84, align 8
  call void @llvm.lifetime.start.p0(i64 8, ptr %13) #3
  %85 = load ptr, ptr %5, align 8
  %86 = call ptr @SDL_GetHint_REAL(ptr noundef %85)
  store ptr %86, ptr %13, align 8
  %87 = load ptr, ptr %6, align 8
  %88 = load ptr, ptr %7, align 8
  %89 = load ptr, ptr %5, align 8
  %90 = load ptr, ptr %13, align 8
  %91 = load ptr, ptr %13, align 8
  call void %87(ptr noundef %88, ptr noundef %89, ptr noundef %90, ptr noundef %91)
  %92 = load i32, ptr %8, align 4
  call void @SDL_UnlockProperties_REAL(i32 noundef %92)
  %93 = load i8, ptr %11, align 1, !range !6, !noundef !7
  %94 = trunc i8 %93 to i1
  store i1 %94, ptr %4, align 1
  store i32 1, ptr %9, align 4
  call void @llvm.lifetime.end.p0(i64 8, ptr %13) #3
  br label %95

95:                                               ; preds = %76, %60
  call void @llvm.lifetime.end.p0(i64 8, ptr %12) #3
  call void @llvm.lifetime.end.p0(i64 1, ptr %11) #3
  br label %96

96:                                               ; preds = %95, %37
  call void @llvm.lifetime.end.p0(i64 8, ptr %10) #3
  br label %97

97:                                               ; preds = %96, %32
  call void @llvm.lifetime.end.p0(i64 4, ptr %8) #3
  br label %98

98:                                               ; preds = %97, %25, %20
  %99 = load i1, ptr %4, align 1
  ret i1 %99
}