; Function Attrs: nounwind uwtable
define hidden zeroext i1 @SDL_AddHintCallback_REAL(ptr noundef %0, ptr noundef %1, ptr noundef %2) local_unnamed_addr #1 {
  %.not = icmp eq ptr %0, null
  br i1 %.not, label %6, label %4

4:                                                ; preds = %3
  %5 = load i8, ptr %0, align 1
  %.not45 = icmp eq i8 %5, 0
  br i1 %.not45, label %6, label %8

6:                                                ; preds = %4, %3
  %7 = tail call zeroext i1 (ptr, ...) @SDL_SetError_REAL(ptr noundef nonnull @.str, ptr noundef nonnull @.str.1) #3
  br label %36

8:                                                ; preds = %4
  %.not46 = icmp eq ptr %1, null
  br i1 %.not46, label %9, label %11

9:                                                ; preds = %8
  %10 = tail call zeroext i1 (ptr, ...) @SDL_SetError_REAL(ptr noundef nonnull @.str, ptr noundef nonnull @.str.5) #3
  br label %36

11:                                               ; preds = %8
  %12 = tail call i32 @SDL_GetAtomicU32_REAL(ptr noundef nonnull @SDL_hint_props) #3
  %13 = icmp eq i32 %12, 0
  br i1 %13, label %14, label %GetHintProperties.exit.thread

14:                                               ; preds = %11
  %15 = tail call i32 @SDL_CreateProperties_REAL() #3
  %16 = tail call zeroext i1 @SDL_CompareAndSwapAtomicU32_REAL(ptr noundef nonnull @SDL_hint_props, i32 noundef 0, i32 noundef %15) #3
  br i1 %16, label %GetHintProperties.exit, label %17

17:                                               ; preds = %14
  tail call void @SDL_DestroyProperties_REAL(i32 noundef %15) #3
  %18 = tail call i32 @SDL_GetAtomicU32_REAL(ptr noundef nonnull @SDL_hint_props) #3
  br label %GetHintProperties.exit

GetHintProperties.exit:                           ; preds = %14, %17
  %.0.i = phi i32 [ %15, %14 ], [ %18, %17 ]
  %.not47 = icmp eq i32 %.0.i, 0
  br i1 %.not47, label %36, label %GetHintProperties.exit.thread

GetHintProperties.exit.thread:                    ; preds = %11, %GetHintProperties.exit
  %.0.i53 = phi i32 [ %.0.i, %GetHintProperties.exit ], [ %12, %11 ]
  %19 = tail call noalias ptr @SDL_malloc_REAL(i64 noundef 24) #3
  %.not48 = icmp eq ptr %19, null
  br i1 %.not48, label %36, label %20

20:                                               ; preds = %GetHintProperties.exit.thread
  store ptr %1, ptr %19, align 8
  %21 = getelementptr inbounds nuw i8, ptr %19, i64 8
  store ptr %2, ptr %21, align 8
  %22 = tail call zeroext i1 @SDL_LockProperties_REAL(i32 noundef %.0.i53) #3
  tail call void @SDL_RemoveHintCallback_REAL(ptr noundef nonnull %0, ptr noundef nonnull %1, ptr noundef %2)
  %23 = tail call ptr @SDL_GetPointerProperty_REAL(i32 noundef %.0.i53, ptr noundef nonnull %0, ptr noundef null) #3
  %.not49 = icmp eq ptr %23, null
  br i1 %.not49, label %24, label %31

24:                                               ; preds = %20
  %25 = tail call noalias ptr @SDL_malloc_REAL(i64 noundef 24) #3
  %.not50 = icmp eq ptr %25, null
  br i1 %.not50, label %26, label %27

26:                                               ; preds = %24
  tail call void @SDL_free_REAL(ptr noundef nonnull %19) #3
  tail call void @SDL_UnlockProperties_REAL(i32 noundef %.0.i53) #3
  br label %36

27:                                               ; preds = %24
  store ptr null, ptr %25, align 8
  %28 = getelementptr inbounds nuw i8, ptr %25, i64 8
  store i32 0, ptr %28, align 8
  %29 = getelementptr inbounds nuw i8, ptr %25, i64 16
  store ptr null, ptr %29, align 8
  %30 = tail call zeroext i1 @SDL_SetPointerPropertyWithCleanup_REAL(i32 noundef %.0.i53, ptr noundef nonnull %0, ptr noundef nonnull %25, ptr noundef nonnull @CleanupHintProperty, ptr noundef null) #3
  br label %31

31:                                               ; preds = %20, %27
  %.038 = phi i1 [ %30, %27 ], [ true, %20 ]
  %.037 = phi ptr [ %25, %27 ], [ %23, %20 ]
  %32 = getelementptr inbounds nuw i8, ptr %.037, i64 16
  %33 = load ptr, ptr %32, align 8
  %34 = getelementptr inbounds nuw i8, ptr %19, i64 16
  store ptr %33, ptr %34, align 8
  store ptr %19, ptr %32, align 8
  %35 = tail call ptr @SDL_GetHint_REAL(ptr noundef nonnull %0)
  tail call void %1(ptr noundef %2, ptr noundef nonnull %0, ptr noundef %35, ptr noundef %35) #3
  tail call void @SDL_UnlockProperties_REAL(i32 noundef %.0.i53) #3
  br label %36

36:                                               ; preds = %GetHintProperties.exit, %26, %31, %GetHintProperties.exit.thread, %9, %6
  %.0 = phi i1 [ %10, %9 ], [ %7, %6 ], [ false, %GetHintProperties.exit ], [ false, %GetHintProperties.exit.thread ], [ %.038, %31 ], [ false, %26 ]
  ret i1 %.0
}